; Function Attrs: nounwind uwtable
define internal fastcc range(i32 0, 2) i32 @r_mark_yDU(ptr noundef %0) unnamed_addr #0 {
  %2 = tail call fastcc i32 @r_check_vowel_harmony(ptr noundef %0)
  %.not.not.not = icmp eq i32 %2, 0
  br i1 %.not.not.not, label %7, label %3

3:                                                ; preds = %1
  %4 = tail call i32 @find_among_b(ptr noundef %0, ptr noundef nonnull @a_20, i32 noundef 32) #3
  %.not = icmp eq i32 %4, 0
  br i1 %.not, label %7, label %5

5:                                                ; preds = %3
  %6 = tail call fastcc i32 @r_mark_suffix_with_optional_y_consonant(ptr noundef %0)
  br label %7

7:                                                ; preds = %5, %1, %3
  %.1 = phi i32 [ 0, %1 ], [ 0, %3 ], [ %6, %5 ]
  ret i32 %.1
}